; Function Attrs: mustprogress uwtable
define void @_ZN3gmx17HelpWriterContext15enterSubSectionERKNSt7__cxx1112basic_stringIcSt11char_traitsIcESaIcEEE(ptr nocapture noundef nonnull readonly align 8 dereferenceable(8) %0, ptr noundef nonnull align 8 dereferenceable(32) %1) local_unnamed_addr #0 align 2 {
  %3 = load ptr, ptr %0, align 8
  %4 = getelementptr inbounds i8, ptr %3, i64 40
  %5 = load i32, ptr %4, align 8
  %6 = icmp slt i32 %5, 11
  br i1 %6, label %8, label %7

7:                                                ; preds = %2
  tail call void @_ZN3gmx8internal13assertHandlerEPKcS2_S2_S2_i(ptr noundef nonnull @.str.79, ptr noundef nonnull @.str.80, ptr noundef nonnull @"__PRETTY_FUNCTION__._ZZN3gmx17HelpWriterContext15enterSubSectionERKNSt7__cxx1112basic_stringIcSt11char_traitsIcESaIcEEEENK3$_0clEv", ptr noundef nonnull @.str.75, i32 noundef 525) #20
  unreachable

8:                                                ; preds = %2
  tail call void @_ZNK3gmx17HelpWriterContext10writeTitleERKNSt7__cxx1112basic_stringIcSt11char_traitsIcESaIcEEE(ptr noundef nonnull align 8 dereferenceable(8) %0, ptr noundef nonnull align 8 dereferenceable(32) %1)
  %9 = load ptr, ptr %0, align 8
  %10 = getelementptr inbounds i8, ptr %9, i64 40
  %11 = load i32, ptr %10, align 8
  %12 = add nsw i32 %11, 1
  store i32 %12, ptr %10, align 8
  ret void
}